; Function Attrs: mustprogress nounwind uwtable
define hidden void @_ZN11PhaseVector16expand_vbox_nodeEP13VectorBoxNode(ptr noundef nonnull align 8 dereferenceable(24) %0, ptr noundef %1) local_unnamed_addr #0 align 2 {
  %3 = alloca %class.VectorSet, align 8
  %4 = getelementptr inbounds i8, ptr %1, i64 32
  %5 = load i32, ptr %4, align 8
  %.not = icmp eq i32 %5, 0
  br i1 %.not, label %21, label %6

6:                                                ; preds = %2
  call void @_ZN9VectorSetC1Ev(ptr noundef nonnull align 8 dereferenceable(32) %3) #6
  %7 = getelementptr inbounds i8, ptr %1, i64 8
  %8 = load ptr, ptr %7, align 8
  %9 = getelementptr inbounds i8, ptr %8, i64 8
  %10 = load ptr, ptr %9, align 8
  %11 = getelementptr inbounds i8, ptr %8, i64 16
  %12 = load ptr, ptr %11, align 8
  %13 = getelementptr inbounds i8, ptr %1, i64 56
  %14 = load ptr, ptr %13, align 8
  %15 = getelementptr inbounds i8, ptr %1, i64 64
  %16 = load ptr, ptr %15, align 8
  %17 = call noundef ptr @_ZN11PhaseVector23expand_vbox_node_helperEP4NodeS1_PK11TypeInstPtrPK8TypeVectR9VectorSet(ptr noundef nonnull align 8 dereferenceable(24) %0, ptr noundef %10, ptr noundef %12, ptr noundef %14, ptr noundef %16, ptr noundef nonnull align 8 dereferenceable(32) %3)
  %18 = getelementptr inbounds i8, ptr %0, i64 8
  %19 = load ptr, ptr %18, align 8
  call void @_ZN7Compile14gvn_replace_byEP4NodeS1_(ptr noundef nonnull align 8 dereferenceable(2316) %19, ptr noundef nonnull %1, ptr noundef %17) #6
  %20 = load ptr, ptr %18, align 8
  call void @_ZN7Compile12print_methodE17CompilerPhaseTypeiP4Node(ptr noundef nonnull align 8 dereferenceable(2316) %20, i32 noundef 15, i32 noundef 3, ptr noundef nonnull %1) #6
  br label %21

21:                                               ; preds = %6, %2
  %22 = getelementptr inbounds i8, ptr %0, i64 8
  %23 = load ptr, ptr %22, align 8
  %24 = getelementptr inbounds i8, ptr %23, i64 416
  %25 = load i32, ptr %24, align 8
  %26 = icmp sgt i32 %25, 0
  br i1 %26, label %.lr.ph.i.i, label %_ZN17GrowableArrayViewIP4NodeE18remove_if_existingERKS1_.exit.i

.lr.ph.i.i:                                       ; preds = %21
  %27 = getelementptr inbounds i8, ptr %23, i64 424
  %28 = load ptr, ptr %27, align 8
  %29 = zext nneg i32 %25 to i64
  br label %30

30:                                               ; preds = %48, %.lr.ph.i.i
  %indvars.iv.i.i = phi i64 [ 0, %.lr.ph.i.i ], [ %indvars.iv.next.i.i, %48 ]
  %31 = getelementptr inbounds ptr, ptr %28, i64 %indvars.iv.i.i
  %32 = load ptr, ptr %31, align 8
  %33 = icmp eq ptr %32, %1
  br i1 %33, label %34, label %48

34:                                               ; preds = %30
  %35 = trunc nuw nsw i64 %indvars.iv.i.i to i32
  %.06.i.i.i = add nuw nsw i32 %35, 1
  %36 = icmp slt i32 %.06.i.i.i, %25
  br i1 %36, label %.lr.ph.i.i.i, label %_ZN17GrowableArrayViewIP4NodeE9remove_atEi.exit.i.i

.lr.ph.i.i.i:                                     ; preds = %34
  %37 = and i64 %indvars.iv.i.i, 4294967295
  %38 = add nuw nsw i64 %37, 1
  br label %39

39:                                               ; preds = %39, %.lr.ph.i.i.i
  %indvars.iv10.i.i.i = phi i64 [ %37, %.lr.ph.i.i.i ], [ %indvars.iv.next11.i.i.i, %39 ]
  %indvars.iv.i.i.i = phi i64 [ %38, %.lr.ph.i.i.i ], [ %indvars.iv.next.i.i.i, %39 ]
  %40 = load ptr, ptr %27, align 8
  %41 = getelementptr inbounds ptr, ptr %40, i64 %indvars.iv.i.i.i
  %42 = load ptr, ptr %41, align 8
  %43 = getelementptr inbounds ptr, ptr %40, i64 %indvars.iv10.i.i.i
  store ptr %42, ptr %43, align 8
  %indvars.iv.next.i.i.i = add nuw nsw i64 %indvars.iv.i.i.i, 1
  %44 = load i32, ptr %24, align 8
  %45 = sext i32 %44 to i64
  %46 = icmp slt i64 %indvars.iv.next.i.i.i, %45
  %indvars.iv.next11.i.i.i = add nuw nsw i64 %indvars.iv10.i.i.i, 1
  br i1 %46, label %39, label %_ZN17GrowableArrayViewIP4NodeE9remove_atEi.exit.i.i, !llvm.loop !19

_ZN17GrowableArrayViewIP4NodeE9remove_atEi.exit.i.i: ; preds = %39, %34
  %.lcssa.i.i.i = phi i32 [ %25, %34 ], [ %44, %39 ]
  %47 = add nsw i32 %.lcssa.i.i.i, -1
  store i32 %47, ptr %24, align 8
  br label %_ZN17GrowableArrayViewIP4NodeE18remove_if_existingERKS1_.exit.i

48:                                               ; preds = %30
  %indvars.iv.next.i.i = add nuw nsw i64 %indvars.iv.i.i, 1
  %exitcond.not.i.i = icmp eq i64 %indvars.iv.next.i.i, %29
  br i1 %exitcond.not.i.i, label %_ZN17GrowableArrayViewIP4NodeE18remove_if_existingERKS1_.exit.i, label %30, !llvm.loop !20

_ZN17GrowableArrayViewIP4NodeE18remove_if_existingERKS1_.exit.i: ; preds = %48, %_ZN17GrowableArrayViewIP4NodeE9remove_atEi.exit.i.i, %21
  %49 = getelementptr inbounds i8, ptr %23, i64 560
  %50 = load i32, ptr %49, align 4
  %51 = icmp sgt i32 %50, 0
  br i1 %51, label %52, label %_ZN7Compile17remove_macro_nodeEP4Node.exit

52:                                               ; preds = %_ZN17GrowableArrayViewIP4NodeE18remove_if_existingERKS1_.exit.i
  call void @_ZN7Compile21remove_coarsened_lockEP4Node(ptr noundef nonnull align 8 dereferenceable(2316) %23, ptr noundef %1) #6
  br label %_ZN7Compile17remove_macro_nodeEP4Node.exit

_ZN7Compile17remove_macro_nodeEP4Node.exit:       ; preds = %_ZN17GrowableArrayViewIP4NodeE18remove_if_existingERKS1_.exit.i, %52
  ret void
}